; Function Attrs: mustprogress nofree nounwind willreturn memory(read, inaccessiblemem: none) uwtable
define i32 @Abc_NtkCompareNames(ptr noundef readonly captures(none) %0, ptr noundef readonly captures(none) %1) #8 {
  %3 = load ptr, ptr %0, align 8, !tbaa !106
  %4 = getelementptr i8, ptr %3, i64 8
  %.val2 = load ptr, ptr %4, align 8, !tbaa !42
  %5 = load ptr, ptr %1, align 8, !tbaa !106
  %6 = getelementptr i8, ptr %5, i64 8
  %.val = load ptr, ptr %6, align 8, !tbaa !42
  %7 = tail call i32 @strcmp(ptr noundef nonnull dereferenceable(1) %.val2, ptr noundef nonnull dereferenceable(1) %.val) #18
  ret i32 %7
}